; Function Attrs: nounwind uwtable
define hidden void @throwThrowable(ptr noundef %0, ptr noundef %1) local_unnamed_addr #1 {
  %.not = icmp eq ptr %1, null
  br i1 %.not, label %10, label %3

3:                                                ; preds = %2
  %4 = load ptr, ptr %0, align 8
  %5 = getelementptr inbounds i8, ptr %4, i64 104
  %6 = load ptr, ptr %5, align 8
  %7 = tail call i32 %6(ptr noundef nonnull %0, ptr noundef nonnull %1) #3
  %8 = icmp eq i32 %7, 0
  %9 = zext i1 %8 to i8
  tail call void @JPLISAssertConditionWithMessage(i8 noundef zeroext %9, ptr noundef nonnull @.str.34, ptr noundef nonnull @.str.35, ptr noundef nonnull @.str.1, i32 noundef 361) #3
  br label %10

10:                                               ; preds = %3, %2
  ret void
}